target datalayout = "e-m:e-p270:32:32-p271:32:32-p272:64:64-i64:64-i128:128-f80:128-n8:16:32:64-S128"
target triple = "x86_64-unknown-linux-gnu"

%"struct.std::_Rb_tree_node_base" = type { i32, ptr, ptr, ptr }
%"struct.std::_Rb_tree_const_iterator" = type { ptr }
%"struct.std::pair" = type { i32, i32 }
%"class.base::(anonymous namespace)::SampleMapIterator" = type { %"class.base::SampleCountIterator", %"struct.std::_Rb_tree_const_iterator", %"struct.std::_Rb_tree_const_iterator" }
%"class.base::SampleCountIterator" = type { ptr }
%"struct.std::_Rb_tree_node" = type { %"struct.std::_Rb_tree_node_base", %"struct.__gnu_cxx::__aligned_membuf" }
%"struct.__gnu_cxx::__aligned_membuf" = type { [8 x i8] }

; Function Attrs: mustprogress nounwind uwtable
define linkonce_odr dso_local noundef ptr @_ZNK9__gnu_cxx16__aligned_membufISt4pairIKiiEE7_M_addrEv(ptr noundef nonnull align 4 dereferenceable(8) %this) #2 comdat align 2 {
entry:
  %this.addr = alloca ptr, align 8
  store ptr %this, ptr %this.addr, align 8
  %this1 = load ptr, ptr %this.addr, align 8
  %_M_storage = getelementptr inbounds %"struct.__gnu_cxx::__aligned_membuf", ptr %this1, i32 0, i32 0
  ret ptr %_M_storage
}

; Function Attrs: mustprogress nounwind uwtable
define linkonce_odr dso_local noundef ptr @_ZNK9__gnu_cxx16__aligned_membufISt4pairIKiiEE6_M_ptrEv(ptr noundef nonnull align 4 dereferenceable(8) %this) #2 comdat align 2 {
entry:
  %this.addr = alloca ptr, align 8
  store ptr %this, ptr %this.addr, align 8
  %this1 = load ptr, ptr %this.addr, align 8
  %call = call noundef ptr @_ZNK9__gnu_cxx16__aligned_membufISt4pairIKiiEE7_M_addrEv(ptr noundef nonnull align 4 dereferenceable(8) %this1) #10
  ret ptr %call
}

; Function Attrs: noreturn nounwind uwtable
define linkonce_odr hidden void @__clang_call_terminate(ptr noundef %0) #6 comdat {
  %2 = call ptr @__cxa_begin_catch(ptr %0) #10
  call void @_ZSt9terminatev() #12
  unreachable
}

; Function Attrs: mustprogress nounwind uwtable
define linkonce_odr dso_local noundef ptr @_ZNKSt13_Rb_tree_nodeISt4pairIKiiEE9_M_valptrEv(ptr noundef nonnull align 8 dereferenceable(40) %this) #2 comdat align 2 {
entry:
  %this.addr = alloca ptr, align 8
  store ptr %this, ptr %this.addr, align 8
  %this1 = load ptr, ptr %this.addr, align 8
  %_M_storage = getelementptr inbounds %"struct.std::_Rb_tree_node", ptr %this1, i32 0, i32 1
  %call = call noundef ptr @_ZNK9__gnu_cxx16__aligned_membufISt4pairIKiiEE6_M_ptrEv(ptr noundef nonnull align 4 dereferenceable(8) %_M_storage) #10
  ret ptr %call
}

; Function Attrs: mustprogress nounwind uwtable
define linkonce_odr dso_local noundef ptr @_ZNKSt23_Rb_tree_const_iteratorISt4pairIKiiEEptEv(ptr noundef nonnull align 8 dereferenceable(8) %this) #2 comdat align 2 personality ptr @__gxx_personality_v0 {
entry:
  %this.addr = alloca ptr, align 8
  store ptr %this, ptr %this.addr, align 8
  %this1 = load ptr, ptr %this.addr, align 8
  %_M_node = getelementptr inbounds %"struct.std::_Rb_tree_const_iterator", ptr %this1, i32 0, i32 0
  %0 = load ptr, ptr %_M_node, align 8
  %call = invoke noundef ptr @_ZNKSt13_Rb_tree_nodeISt4pairIKiiEE9_M_valptrEv(ptr noundef nonnull align 8 dereferenceable(40) %0)
          to label %invoke.cont unwind label %terminate.lpad

invoke.cont:                                      ; preds = %entry
  ret ptr %call

terminate.lpad:                                   ; preds = %entry
  %1 = landingpad { ptr, i32 }
          catch ptr null
  %2 = extractvalue { ptr, i32 } %1, 0
  call void @__clang_call_terminate(ptr %2) #12
  unreachable
}

; Function Attrs: mustprogress nounwind uwtable
define internal void @_ZNK4base12_GLOBAL__N_117SampleMapIterator3GetEPiS2_S2_(ptr noundef nonnull align 8 dereferenceable(24) %this, ptr noundef %min, ptr noundef %max, ptr noundef %count) unnamed_addr #2 align 2 {
entry:
  %this.addr = alloca ptr, align 8
  %min.addr = alloca ptr, align 8
  %max.addr = alloca ptr, align 8
  %count.addr = alloca ptr, align 8
  store ptr %this, ptr %this.addr, align 8
  store ptr %min, ptr %min.addr, align 8
  store ptr %max, ptr %max.addr, align 8
  store ptr %count, ptr %count.addr, align 8
  %this1 = load ptr, ptr %this.addr, align 8
  %0 = load ptr, ptr %min.addr, align 8
  %tobool = icmp ne ptr %0, null
  br i1 %tobool, label %if.then, label %if.end

if.then:                                          ; preds = %entry
  %iter_ = getelementptr inbounds %"class.base::(anonymous namespace)::SampleMapIterator", ptr %this1, i32 0, i32 1
  %call = call noundef ptr @_ZNKSt23_Rb_tree_const_iteratorISt4pairIKiiEEptEv(ptr noundef nonnull align 8 dereferenceable(8) %iter_) #10
  %first = getelementptr inbounds %"struct.std::pair", ptr %call, i32 0, i32 0
  %1 = load i32, ptr %first, align 4
  %2 = load ptr, ptr %min.addr, align 8
  store i32 %1, ptr %2, align 4
  br label %if.end

if.end:                                           ; preds = %if.then, %entry
  %3 = load ptr, ptr %max.addr, align 8
  %tobool2 = icmp ne ptr %3, null
  br i1 %tobool2, label %if.then3, label %if.end7

if.then3:                                         ; preds = %if.end
  %iter_4 = getelementptr inbounds %"class.base::(anonymous namespace)::SampleMapIterator", ptr %this1, i32 0, i32 1
  %call5 = call noundef ptr @_ZNKSt23_Rb_tree_const_iteratorISt4pairIKiiEEptEv(ptr noundef nonnull align 8 dereferenceable(8) %iter_4) #10
  %first6 = getelementptr inbounds %"struct.std::pair", ptr %call5, i32 0, i32 0
  %4 = load i32, ptr %first6, align 4
  %add = add nsw i32 %4, 1
  %5 = load ptr, ptr %max.addr, align 8
  store i32 %add, ptr %5, align 4
  br label %if.end7

if.end7:                                          ; preds = %if.then3, %if.end
  %6 = load ptr, ptr %count.addr, align 8
  %tobool8 = icmp ne ptr %6, null
  br i1 %tobool8, label %if.then9, label %if.end12

if.then9:                                         ; preds = %if.end7
  %iter_10 = getelementptr inbounds %"class.base::(anonymous namespace)::SampleMapIterator", ptr %this1, i32 0, i32 1
  %call11 = call noundef ptr @_ZNKSt23_Rb_tree_const_iteratorISt4pairIKiiEEptEv(ptr noundef nonnull align 8 dereferenceable(8) %iter_10) #10
  %second = getelementptr inbounds %"struct.std::pair", ptr %call11, i32 0, i32 1
  %7 = load i32, ptr %second, align 4
  %8 = load ptr, ptr %count.addr, align 8
  store i32 %7, ptr %8, align 4
  br label %if.end12

if.end12:                                         ; preds = %if.then9, %if.end7
  ret void
}