; Function Attrs: mustprogress nofree norecurse nosync nounwind willreturn memory(read, argmem: readwrite, inaccessiblemem: none) uwtable
define internal void @_ZNK4base12_GLOBAL__N_117SampleMapIterator3GetEPiS2_S2_(ptr nocapture noundef nonnull readonly align 8 dereferenceable(24) %this, ptr noundef writeonly %min, ptr noundef writeonly %max, ptr noundef writeonly %count) unnamed_addr #10 align 2 personality ptr @__gxx_personality_v0 {
entry:
  %tobool.not = icmp eq ptr %min, null
  br i1 %tobool.not, label %if.end, label %if.then

if.then:                                          ; preds = %entry
  %iter_ = getelementptr inbounds i8, ptr %this, i64 8
  %0 = load ptr, ptr %iter_, align 8
  %_M_storage.i.i = getelementptr inbounds i8, ptr %0, i64 32
  %1 = load i32, ptr %_M_storage.i.i, align 4
  store i32 %1, ptr %min, align 4
  br label %if.end

if.end:                                           ; preds = %if.then, %entry
  %tobool2.not = icmp eq ptr %max, null
  br i1 %tobool2.not, label %if.end7, label %if.then3

if.then3:                                         ; preds = %if.end
  %iter_4 = getelementptr inbounds i8, ptr %this, i64 8
  %2 = load ptr, ptr %iter_4, align 8
  %_M_storage.i.i4 = getelementptr inbounds i8, ptr %2, i64 32
  %3 = load i32, ptr %_M_storage.i.i4, align 4
  %add = add nsw i32 %3, 1
  store i32 %add, ptr %max, align 4
  br label %if.end7

if.end7:                                          ; preds = %if.then3, %if.end
  %tobool8.not = icmp eq ptr %count, null
  br i1 %tobool8.not, label %if.end12, label %if.then9

if.then9:                                         ; preds = %if.end7
  %iter_10 = getelementptr inbounds i8, ptr %this, i64 8
  %4 = load ptr, ptr %iter_10, align 8
  %second = getelementptr inbounds i8, ptr %4, i64 36
  %5 = load i32, ptr %second, align 4
  store i32 %5, ptr %count, align 4
  br label %if.end12

if.end12:                                         ; preds = %if.then9, %if.end7
  ret void
}